; Function Attrs: null_pointer_is_valid sspstrong uwtable
define internal i32 @samr_dissect_QueryDomainInfo2_request(ptr noundef %0, i32 noundef %1, ptr noundef %2, ptr noundef %3, ptr noundef initializes((72, 80)) %4, ptr noundef %5) #0 {
  %7 = alloca i32, align 4
  %8 = getelementptr inbounds nuw i8, ptr %4, i64 72
  store ptr @.str.1252, ptr %8, align 8
  %9 = load i32, ptr @hf_samr_domain_handle, align 4
  %10 = tail call i32 @dissect_ndr_toplevel_pointer(ptr noundef %0, i32 noundef %1, ptr noundef %2, ptr noundef %3, ptr noundef %4, ptr noundef %5, ptr noundef nonnull @samr_dissect_element_QueryDomainInfo2_domain_handle_, i32 noundef 1, ptr noundef nonnull @.str.1293, i32 noundef %9)
  %11 = tail call i32 @dissect_deferred_pointers(ptr noundef %2, ptr noundef %0, i32 noundef %10, ptr noundef %4, ptr noundef %5)
  %12 = load i32, ptr @hf_samr_samr_QueryDomainInfo2_level, align 4
  call void @llvm.lifetime.start.p0(i64 4, ptr nonnull %7) #5
  store i32 0, ptr %7, align 4
  %13 = call i32 @dissect_ndr_uint1632(ptr noundef %0, i32 noundef %11, ptr noundef %2, ptr noundef %3, ptr noundef %4, ptr noundef %5, i32 noundef %12, ptr noundef nonnull %7)
  call void @llvm.lifetime.end.p0(i64 4, ptr nonnull %7) #5
  %14 = call i32 @dissect_deferred_pointers(ptr noundef %2, ptr noundef %0, i32 noundef %13, ptr noundef %4, ptr noundef %5)
  ret i32 %14
}